; ModuleID = '15/2104.c'
source_filename = "15/2104.c"
target datalayout = "e-m:e-p270:32:32-p271:32:32-p272:64:64-i64:64-f80:128-n8:16:32:64-S128"
target triple = "x86_64-pc-linux-gnu"

@.str = private unnamed_addr constant [3 x i8] c"%d\00", align 1

; Function Attrs: noinline nounwind uwtable
define dso_local i32 @main() #0 {
  %1 = alloca i32, align 4
  %2 = alloca [10 x i32], align 16
  %3 = alloca i32, align 4
  %4 = alloca i32, align 4
  %5 = alloca i32, align 4
  %6 = alloca i32, align 4
  %7 = alloca i32, align 4
  %8 = alloca i32, align 4
  %9 = alloca i32, align 4
  store i32 0, i32* %1, align 4
  %10 = call i32 (i8*, ...) @__isoc99_scanf(i8* getelementptr inbounds ([3 x i8], [3 x i8]* @.str, i64 0, i64 0), i32* %3)
  store i32 0, i32* %4, align 4
  store i32 0, i32* %7, align 4
  br label %11

11:                                               ; preds = %50, %0
  %12 = load i32, i32* %4, align 4
  %13 = load i32, i32* %3, align 4
  %14 = sub nsw i32 %13, 1
  %15 = icmp sle i32 %12, %14
  br i1 %15, label %16, label %53

16:                                               ; preds = %11
  store i32 0, i32* %5, align 4
  store i32 0, i32* %9, align 4
  br label %17

17:                                               ; preds = %33, %16
  %18 = load i32, i32* %5, align 4
  %19 = load i32, i32* %3, align 4
  %20 = sub nsw i32 %19, 1
  %21 = icmp sle i32 %18, %20
  br i1 %21, label %22, label %36

22:                                               ; preds = %17
  %23 = load i32, i32* %5, align 4
  %24 = sext i32 %23 to i64
  %25 = getelementptr inbounds [10 x i32], [10 x i32]* %2, i64 0, i64 %24
  %26 = call i32 (i8*, ...) @__isoc99_scanf(i8* getelementptr inbounds ([3 x i8], [3 x i8]* @.str, i64 0, i64 0), i32* %25)
  %27 = load i32, i32* %9, align 4
  %28 = load i32, i32* %5, align 4
  %29 = sext i32 %28 to i64
  %30 = getelementptr inbounds [10 x i32], [10 x i32]* %2, i64 0, i64 %29
  %31 = load i32, i32* %30, align 4
  %32 = add nsw i32 %27, %31
  store i32 %32, i32* %9, align 4
  br label %33

33:                                               ; preds = %22
  %34 = load i32, i32* %5, align 4
  %35 = add nsw i32 %34, 1
  store i32 %35, i32* %5, align 4
  br label %17

36:                                               ; preds = %17
  %37 = load i32, i32* %9, align 4
  %38 = load i32, i32* %3, align 4
  %39 = mul nsw i32 %38, 255
  %40 = icmp eq i32 %37, %39
  br i1 %40, label %41, label %42

41:                                               ; preds = %36
  br label %50

42:                                               ; preds = %36
  %43 = load i32, i32* %3, align 4
  %44 = mul nsw i32 %43, 255
  %45 = load i32, i32* %9, align 4
  %46 = sub nsw i32 %44, %45
  %47 = sdiv i32 %46, 255
  store i32 %47, i32* %6, align 4
  %48 = load i32, i32* %7, align 4
  %49 = add nsw i32 %48, 1
  store i32 %49, i32* %7, align 4
  br label %50

50:                                               ; preds = %42, %41
  %51 = load i32, i32* %4, align 4
  %52 = add nsw i32 %51, 1
  store i32 %52, i32* %4, align 4
  br label %11

53:                                               ; preds = %11
  %54 = load i32, i32* %7, align 4
  %55 = sub nsw i32 %54, 2
  %56 = load i32, i32* %6, align 4
  %57 = sub nsw i32 %56, 2
  %58 = mul nsw i32 %55, %57
  store i32 %58, i32* %8, align 4
  %59 = load i32, i32* %8, align 4
  %60 = call i32 (i8*, ...) @printf(i8* getelementptr inbounds ([3 x i8], [3 x i8]* @.str, i64 0, i64 0), i32 %59)
  %61 = load i32, i32* %1, align 4
  ret i32 %61
}

declare dso_local i32 @__isoc99_scanf(i8*, ...) #1

declare dso_local i32 @printf(i8*, ...) #1


!llvm.module.flags = !{!0}
!llvm.ident = !{!1}

!0 = !{i32 1, !"wchar_size", i32 4}
!1 = !{!"clang version 10.0.0-4ubuntu1 "}
