; ModuleID = 'source-C-CXX/14/2104.c'
source_filename = "source-C-CXX/14/2104.c"
target datalayout = "e-m:e-p270:32:32-p271:32:32-p272:64:64-i64:64-f80:128-n8:16:32:64-S128"
target triple = "x86_64-pc-linux-gnu"

@.str = private unnamed_addr constant [3 x i8] c"%d\00", align 1

; Function Attrs: nofree nounwind sspstrong uwtable
define dso_local i32 @main() local_unnamed_addr #0 {
  %1 = alloca [10 x i32], align 16
  %2 = alloca i32, align 4
  %3 = bitcast [10 x i32]* %1 to i8*
  call void @llvm.lifetime.start.p0i8(i64 40, i8* nonnull %3) #3
  %4 = bitcast i32* %2 to i8*
  call void @llvm.lifetime.start.p0i8(i64 4, i8* nonnull %4) #3
  %5 = call i32 (i8*, ...) @__isoc99_scanf(i8* getelementptr inbounds ([3 x i8], [3 x i8]* @.str, i64 0, i64 0), i32* nonnull %2)
  %6 = load i32, i32* %2, align 4, !tbaa !5
  %7 = icmp sgt i32 %6, 0
  br i1 %7, label %8, label %39

8:                                                ; preds = %0, %34
  %9 = phi i32 [ %26, %34 ], [ %6, %0 ]
  %10 = phi i32 [ %37, %34 ], [ 0, %0 ]
  %11 = phi i32 [ %36, %34 ], [ 0, %0 ]
  %12 = phi i32 [ %35, %34 ], [ undef, %0 ]
  %13 = icmp sgt i32 %9, 0
  br i1 %13, label %14, label %25

14:                                               ; preds = %8, %14
  %15 = phi i64 [ %21, %14 ], [ 0, %8 ]
  %16 = phi i32 [ %20, %14 ], [ 0, %8 ]
  %17 = getelementptr inbounds [10 x i32], [10 x i32]* %1, i64 0, i64 %15
  %18 = call i32 (i8*, ...) @__isoc99_scanf(i8* getelementptr inbounds ([3 x i8], [3 x i8]* @.str, i64 0, i64 0), i32* nonnull %17)
  %19 = load i32, i32* %17, align 4, !tbaa !5
  %20 = add nsw i32 %19, %16
  %21 = add nuw nsw i64 %15, 1
  %22 = load i32, i32* %2, align 4, !tbaa !5
  %23 = sext i32 %22 to i64
  %24 = icmp slt i64 %21, %23
  br i1 %24, label %14, label %25, !llvm.loop !9

25:                                               ; preds = %14, %8
  %26 = phi i32 [ %9, %8 ], [ %22, %14 ]
  %27 = phi i32 [ 0, %8 ], [ %20, %14 ]
  %28 = mul nsw i32 %26, 255
  %29 = icmp eq i32 %28, %27
  br i1 %29, label %34, label %30

30:                                               ; preds = %25
  %31 = sub nsw i32 %28, %27
  %32 = sdiv i32 %31, 255
  %33 = add nsw i32 %11, 1
  br label %34

34:                                               ; preds = %25, %30
  %35 = phi i32 [ %12, %25 ], [ %32, %30 ]
  %36 = phi i32 [ %11, %25 ], [ %33, %30 ]
  %37 = add nuw nsw i32 %10, 1
  %38 = icmp slt i32 %37, %26
  br i1 %38, label %8, label %39, !llvm.loop !11

39:                                               ; preds = %34, %0
  %40 = phi i32 [ undef, %0 ], [ %35, %34 ]
  %41 = phi i32 [ 0, %0 ], [ %36, %34 ]
  %42 = add nsw i32 %41, -2
  %43 = add nsw i32 %40, -2
  %44 = mul nsw i32 %42, %43
  %45 = call i32 (i8*, ...) @printf(i8* nonnull dereferenceable(1) getelementptr inbounds ([3 x i8], [3 x i8]* @.str, i64 0, i64 0), i32 %44)
  call void @llvm.lifetime.end.p0i8(i64 4, i8* nonnull %4) #3
  call void @llvm.lifetime.end.p0i8(i64 40, i8* nonnull %3) #3
  ret i32 0
}

; Function Attrs: argmemonly mustprogress nofree nosync nounwind willreturn
declare void @llvm.lifetime.start.p0i8(i64 immarg, i8* nocapture) #1

; Function Attrs: nofree nounwind
declare noundef i32 @__isoc99_scanf(i8* nocapture noundef readonly, ...) local_unnamed_addr #2

; Function Attrs: nofree nounwind
declare noundef i32 @printf(i8* nocapture noundef readonly, ...) local_unnamed_addr #2

; Function Attrs: argmemonly mustprogress nofree nosync nounwind willreturn
declare void @llvm.lifetime.end.p0i8(i64 immarg, i8* nocapture) #1


!llvm.module.flags = !{!0, !1, !2, !3}
!llvm.ident = !{!4}

!0 = !{i32 1, !"wchar_size", i32 4}
!1 = !{i32 7, !"PIC Level", i32 2}
!2 = !{i32 7, !"PIE Level", i32 2}
!3 = !{i32 7, !"uwtable", i32 1}
!4 = !{!"clang version 13.0.0"}
!5 = !{!6, !6, i64 0}
!6 = !{!"int", !7, i64 0}
!7 = !{!"omnipotent char", !8, i64 0}
!8 = !{!"Simple C/C++ TBAA"}
!9 = distinct !{!9, !10}
!10 = !{!"llvm.loop.mustprogress"}
!11 = distinct !{!11, !10, !12}
!12 = !{!"llvm.loop.unswitch.partial.disable"}
